target datalayout = "e-m:e-p270:32:32-p271:32:32-p272:64:64-i64:64-i128:128-f80:128-n8:16:32:64-S128"
target triple = "x86_64-pc-linux-gnu"

%struct.lv_i18n_lang_t = type { ptr, ptr, [6 x ptr], ptr }
%struct.lv_i18n_phrase_t = type { ptr, ptr }

@current_lang_pack = internal global ptr null, align 8
@current_lang = internal global ptr null, align 8

; Function Attrs: nounwind uwtable
define internal ptr @__lv_i18n_get_text_core(ptr noundef %0, ptr noundef %1) #0 {
  %3 = alloca ptr, align 8
  %4 = alloca ptr, align 8
  %5 = alloca ptr, align 8
  %6 = alloca i16, align 2
  %7 = alloca i32, align 4
  store ptr %0, ptr %4, align 8, !tbaa !3
  store ptr %1, ptr %5, align 8, !tbaa !3
  call void @llvm.lifetime.start.p0(i64 2, ptr %6) #4
  store i16 0, ptr %6, align 2, !tbaa !7
  br label %8

8:                                                ; preds = %43, %2
  %9 = load ptr, ptr %4, align 8, !tbaa !3
  %10 = load i16, ptr %6, align 2, !tbaa !7
  %11 = zext i16 %10 to i64
  %12 = getelementptr inbounds nuw %struct.lv_i18n_phrase_t, ptr %9, i64 %11
  %13 = getelementptr inbounds nuw %struct.lv_i18n_phrase_t, ptr %12, i32 0, i32 0
  %14 = load ptr, ptr %13, align 8, !tbaa !14
  %15 = icmp ne ptr %14, null
  br i1 %15, label %16, label %46

16:                                               ; preds = %8
  %17 = load ptr, ptr %4, align 8, !tbaa !3
  %18 = load i16, ptr %6, align 2, !tbaa !7
  %19 = zext i16 %18 to i64
  %20 = getelementptr inbounds nuw %struct.lv_i18n_phrase_t, ptr %17, i64 %19
  %21 = getelementptr inbounds nuw %struct.lv_i18n_phrase_t, ptr %20, i32 0, i32 0
  %22 = load ptr, ptr %21, align 8, !tbaa !14
  %23 = load ptr, ptr %5, align 8, !tbaa !3
  %24 = call i32 @lv_strcmp(ptr noundef %22, ptr noundef %23)
  %25 = icmp eq i32 %24, 0
  br i1 %25, label %26, label %42

26:                                               ; preds = %16
  %27 = load ptr, ptr %4, align 8, !tbaa !3
  %28 = load i16, ptr %6, align 2, !tbaa !7
  %29 = zext i16 %28 to i64
  %30 = getelementptr inbounds nuw %struct.lv_i18n_phrase_t, ptr %27, i64 %29
  %31 = getelementptr inbounds nuw %struct.lv_i18n_phrase_t, ptr %30, i32 0, i32 1
  %32 = load ptr, ptr %31, align 8, !tbaa !16
  %33 = icmp ne ptr %32, null
  br i1 %33, label %34, label %41

34:                                               ; preds = %26
  %35 = load ptr, ptr %4, align 8, !tbaa !3
  %36 = load i16, ptr %6, align 2, !tbaa !7
  %37 = zext i16 %36 to i64
  %38 = getelementptr inbounds nuw %struct.lv_i18n_phrase_t, ptr %35, i64 %37
  %39 = getelementptr inbounds nuw %struct.lv_i18n_phrase_t, ptr %38, i32 0, i32 1
  %40 = load ptr, ptr %39, align 8, !tbaa !16
  store ptr %40, ptr %3, align 8
  store i32 1, ptr %7, align 4
  br label %47

41:                                               ; preds = %26
  br label %42

42:                                               ; preds = %41, %16
  br label %43

43:                                               ; preds = %42
  %44 = load i16, ptr %6, align 2, !tbaa !7
  %45 = add i16 %44, 1
  store i16 %45, ptr %6, align 2, !tbaa !7
  br label %8, !llvm.loop !17

46:                                               ; preds = %8
  store ptr null, ptr %3, align 8
  store i32 1, ptr %7, align 4
  br label %47

47:                                               ; preds = %46, %34
  call void @llvm.lifetime.end.p0(i64 2, ptr %6) #4
  %48 = load ptr, ptr %3, align 8
  ret ptr %48
}

; Function Attrs: nounwind uwtable
define ptr @lv_i18n_get_text(ptr noundef %0) #0 {
  %2 = alloca ptr, align 8
  %3 = alloca ptr, align 8
  %4 = alloca ptr, align 8
  %5 = alloca ptr, align 8
  %6 = alloca i32, align 4
  store ptr %0, ptr %3, align 8, !tbaa !3
  %7 = load ptr, ptr @current_lang, align 8, !tbaa !3
  %8 = icmp eq ptr %7, null
  br i1 %8, label %9, label %11

9:                                                ; preds = %1
  %10 = load ptr, ptr %3, align 8, !tbaa !3
  store ptr %10, ptr %2, align 8
  br label %58

11:                                               ; preds = %1
  call void @llvm.lifetime.start.p0(i64 8, ptr %4) #4
  %12 = load ptr, ptr @current_lang, align 8, !tbaa !3
  store ptr %12, ptr %4, align 8, !tbaa !3
  call void @llvm.lifetime.start.p0(i64 8, ptr %5) #4
  %13 = load ptr, ptr %4, align 8, !tbaa !3
  %14 = getelementptr inbounds nuw %struct.lv_i18n_lang_t, ptr %13, i32 0, i32 1
  %15 = load ptr, ptr %14, align 8, !tbaa !13
  %16 = icmp ne ptr %15, null
  br i1 %16, label %17, label %28

17:                                               ; preds = %11
  %18 = load ptr, ptr %4, align 8, !tbaa !3
  %19 = getelementptr inbounds nuw %struct.lv_i18n_lang_t, ptr %18, i32 0, i32 1
  %20 = load ptr, ptr %19, align 8, !tbaa !13
  %21 = load ptr, ptr %3, align 8, !tbaa !3
  %22 = call ptr @__lv_i18n_get_text_core(ptr noundef %20, ptr noundef %21)
  store ptr %22, ptr %5, align 8, !tbaa !3
  %23 = load ptr, ptr %5, align 8, !tbaa !3
  %24 = icmp ne ptr %23, null
  br i1 %24, label %25, label %27

25:                                               ; preds = %17
  %26 = load ptr, ptr %5, align 8, !tbaa !3
  store ptr %26, ptr %2, align 8
  store i32 1, ptr %6, align 4
  br label %57

27:                                               ; preds = %17
  br label %28

28:                                               ; preds = %27, %11
  %29 = load ptr, ptr %4, align 8, !tbaa !3
  %30 = load ptr, ptr @current_lang_pack, align 8, !tbaa !3
  %31 = getelementptr inbounds ptr, ptr %30, i64 0
  %32 = load ptr, ptr %31, align 8, !tbaa !3
  %33 = icmp eq ptr %29, %32
  br i1 %33, label %34, label %36

34:                                               ; preds = %28
  %35 = load ptr, ptr %3, align 8, !tbaa !3
  store ptr %35, ptr %2, align 8
  store i32 1, ptr %6, align 4
  br label %57

36:                                               ; preds = %28
  %37 = load ptr, ptr @current_lang_pack, align 8, !tbaa !3
  %38 = getelementptr inbounds ptr, ptr %37, i64 0
  %39 = load ptr, ptr %38, align 8, !tbaa !3
  store ptr %39, ptr %4, align 8, !tbaa !3
  %40 = load ptr, ptr %4, align 8, !tbaa !3
  %41 = getelementptr inbounds nuw %struct.lv_i18n_lang_t, ptr %40, i32 0, i32 1
  %42 = load ptr, ptr %41, align 8, !tbaa !13
  %43 = icmp ne ptr %42, null
  br i1 %43, label %44, label %55

44:                                               ; preds = %36
  %45 = load ptr, ptr %4, align 8, !tbaa !3
  %46 = getelementptr inbounds nuw %struct.lv_i18n_lang_t, ptr %45, i32 0, i32 1
  %47 = load ptr, ptr %46, align 8, !tbaa !13
  %48 = load ptr, ptr %3, align 8, !tbaa !3
  %49 = call ptr @__lv_i18n_get_text_core(ptr noundef %47, ptr noundef %48)
  store ptr %49, ptr %5, align 8, !tbaa !3
  %50 = load ptr, ptr %5, align 8, !tbaa !3
  %51 = icmp ne ptr %50, null
  br i1 %51, label %52, label %54

52:                                               ; preds = %44
  %53 = load ptr, ptr %5, align 8, !tbaa !3
  store ptr %53, ptr %2, align 8
  store i32 1, ptr %6, align 4
  br label %57

54:                                               ; preds = %44
  br label %55

55:                                               ; preds = %54, %36
  %56 = load ptr, ptr %3, align 8, !tbaa !3
  store ptr %56, ptr %2, align 8
  store i32 1, ptr %6, align 4
  br label %57

57:                                               ; preds = %55, %52, %34, %25
  call void @llvm.lifetime.end.p0(i64 8, ptr %5) #4
  call void @llvm.lifetime.end.p0(i64 8, ptr %4) #4
  br label %58

58:                                               ; preds = %57, %9
  %59 = load ptr, ptr %2, align 8
  ret ptr %59
}