; Function Attrs: nounwind uwtable
define ptr @lv_i18n_get_text(ptr noundef %0) local_unnamed_addr #2 {
  %2 = load ptr, ptr @current_lang, align 8, !tbaa !3
  %3 = icmp eq ptr %2, null
  br i1 %3, label %__lv_i18n_get_text_core.exit, label %4

4:                                                ; preds = %1
  %5 = getelementptr inbounds nuw i8, ptr %2, i64 8
  %6 = load ptr, ptr %5, align 8, !tbaa !11
  %.not = icmp eq ptr %6, null
  br i1 %.not, label %__lv_i18n_get_text_core.exit.thread, label %7

7:                                                ; preds = %4
  %8 = load ptr, ptr %6, align 8, !tbaa !12
  %.not14.i = icmp eq ptr %8, null
  br i1 %.not14.i, label %__lv_i18n_get_text_core.exit.thread, label %.lr.ph.i

.lr.ph.i:                                         ; preds = %7, %16
  %9 = phi ptr [ %20, %16 ], [ %8, %7 ]
  %10 = phi ptr [ %19, %16 ], [ %6, %7 ]
  %.015.i = phi i16 [ %17, %16 ], [ 0, %7 ]
  %11 = tail call i32 @lv_strcmp(ptr noundef nonnull %9, ptr noundef %0) #7
  %12 = icmp eq i32 %11, 0
  br i1 %12, label %13, label %16

13:                                               ; preds = %.lr.ph.i
  %14 = getelementptr inbounds nuw i8, ptr %10, i64 8
  %15 = load ptr, ptr %14, align 8, !tbaa !14
  %.not13.i = icmp eq ptr %15, null
  br i1 %.not13.i, label %16, label %__lv_i18n_get_text_core.exit

16:                                               ; preds = %13, %.lr.ph.i
  %17 = add i16 %.015.i, 1
  %18 = zext i16 %17 to i64
  %19 = getelementptr inbounds nuw %struct.lv_i18n_phrase_t, ptr %6, i64 %18
  %20 = load ptr, ptr %19, align 8, !tbaa !12
  %.not.i = icmp eq ptr %20, null
  br i1 %.not.i, label %__lv_i18n_get_text_core.exit.thread, label %.lr.ph.i, !llvm.loop !15

__lv_i18n_get_text_core.exit.thread:              ; preds = %16, %7, %4
  %21 = load ptr, ptr @current_lang_pack, align 8, !tbaa !3
  %22 = load ptr, ptr %21, align 8, !tbaa !3
  %23 = icmp eq ptr %2, %22
  br i1 %23, label %__lv_i18n_get_text_core.exit, label %24

24:                                               ; preds = %__lv_i18n_get_text_core.exit.thread
  %25 = getelementptr inbounds nuw i8, ptr %22, i64 8
  %26 = load ptr, ptr %25, align 8, !tbaa !11
  %.not22 = icmp eq ptr %26, null
  br i1 %.not22, label %__lv_i18n_get_text_core.exit, label %27

27:                                               ; preds = %24
  %28 = load ptr, ptr %26, align 8, !tbaa !12
  %.not14.i24 = icmp eq ptr %28, null
  br i1 %.not14.i24, label %__lv_i18n_get_text_core.exit, label %.lr.ph.i25

.lr.ph.i25:                                       ; preds = %27, %36
  %29 = phi ptr [ %40, %36 ], [ %28, %27 ]
  %30 = phi ptr [ %39, %36 ], [ %26, %27 ]
  %.015.i26 = phi i16 [ %37, %36 ], [ 0, %27 ]
  %31 = tail call i32 @lv_strcmp(ptr noundef nonnull %29, ptr noundef %0) #7
  %32 = icmp eq i32 %31, 0
  br i1 %32, label %33, label %36

33:                                               ; preds = %.lr.ph.i25
  %34 = getelementptr inbounds nuw i8, ptr %30, i64 8
  %35 = load ptr, ptr %34, align 8, !tbaa !14
  %.not13.i29 = icmp eq ptr %35, null
  br i1 %.not13.i29, label %36, label %__lv_i18n_get_text_core.exit

36:                                               ; preds = %33, %.lr.ph.i25
  %37 = add i16 %.015.i26, 1
  %38 = zext i16 %37 to i64
  %39 = getelementptr inbounds nuw %struct.lv_i18n_phrase_t, ptr %26, i64 %38
  %40 = load ptr, ptr %39, align 8, !tbaa !12
  %.not.i27 = icmp eq ptr %40, null
  br i1 %.not.i27, label %__lv_i18n_get_text_core.exit, label %.lr.ph.i25, !llvm.loop !15

__lv_i18n_get_text_core.exit:                     ; preds = %13, %36, %33, %27, %24, %__lv_i18n_get_text_core.exit.thread, %1
  %.0 = phi ptr [ %0, %1 ], [ %0, %__lv_i18n_get_text_core.exit.thread ], [ %0, %24 ], [ %0, %27 ], [ %0, %36 ], [ %35, %33 ], [ %15, %13 ]
  ret ptr %.0
}